; Function Attrs: mustprogress uwtable
define dso_local noundef zeroext i1 @_ZN20cmFindProgramCommand11InitialPassERKSt6vectorINSt7__cxx1112basic_stringIcSt11char_traitsIcESaIcEEESaIS6_EE(ptr noundef nonnull align 8 dereferenceable(600) %0, ptr noundef nonnull align 8 dereferenceable(24) %1) local_unnamed_addr #3 align 2 personality ptr @__gxx_personality_v0 {
  %3 = alloca %"class.std::__cxx11::basic_string", align 8
  %4 = getelementptr inbounds i8, ptr %0, i64 56
  %5 = tail call noundef nonnull align 8 dereferenceable(32) ptr @_ZNSt7__cxx1112basic_stringIcSt11char_traitsIcESaIcEEaSEPKc(ptr noundef nonnull align 8 dereferenceable(32) %4, ptr noundef nonnull @.str.4)
  %6 = load ptr, ptr %0, align 8
  %7 = getelementptr inbounds i8, ptr %6, i64 16
  %8 = load ptr, ptr %7, align 8
  %9 = tail call noundef zeroext i1 %8(ptr noundef nonnull align 8 dereferenceable(600) %0, ptr noundef nonnull align 8 dereferenceable(24) %1)
  br i1 %9, label %10, label %24

10:                                               ; preds = %2
  %11 = getelementptr inbounds i8, ptr %0, i64 8
  %12 = getelementptr inbounds i8, ptr %0, i64 464
  %13 = tail call noundef zeroext i1 @_ZN12cmFindCommon24ComputeIfDebugModeWantedERKNSt7__cxx1112basic_stringIcSt11char_traitsIcESaIcEEE(ptr noundef nonnull align 8 dereferenceable(384) %11, ptr noundef nonnull align 8 dereferenceable(32) %12)
  %14 = getelementptr inbounds i8, ptr %0, i64 92
  %15 = zext i1 %13 to i8
  store i8 %15, ptr %14, align 4
  %16 = getelementptr inbounds i8, ptr %0, i64 560
  %17 = load i8, ptr %16, align 8
  %18 = and i8 %17, 1
  %.not = icmp eq i8 %18, 0
  br i1 %.not, label %20, label %19

19:                                               ; preds = %10
  tail call void @_ZN10cmFindBase19NormalizeFindResultEv(ptr noundef nonnull align 8 dereferenceable(600) %0)
  br label %24

20:                                               ; preds = %10
  call void @_ZN20cmFindProgramCommand11FindProgramB5cxx11Ev(ptr dead_on_unwind nonnull writable sret(%"class.std::__cxx11::basic_string") align 8 %3, ptr noundef nonnull align 8 dereferenceable(600) %0)
  invoke void @_ZN10cmFindBase15StoreFindResultERKNSt7__cxx1112basic_stringIcSt11char_traitsIcESaIcEEE(ptr noundef nonnull align 8 dereferenceable(600) %0, ptr noundef nonnull align 8 dereferenceable(32) %3)
          to label %21 unwind label %22

21:                                               ; preds = %20
  call void @_ZNSt7__cxx1112basic_stringIcSt11char_traitsIcESaIcEED1Ev(ptr noundef nonnull align 8 dereferenceable(32) %3) #15
  br label %24

22:                                               ; preds = %20
  %23 = landingpad { ptr, i32 }
          cleanup
  call void @_ZNSt7__cxx1112basic_stringIcSt11char_traitsIcESaIcEED1Ev(ptr noundef nonnull align 8 dereferenceable(32) %3) #15
  resume { ptr, i32 } %23

24:                                               ; preds = %2, %21, %19
  ret i1 %9
}